; Function Attrs: mustprogress uwtable
define noundef i64 @_ZNK8facebook5velox6memory13MemoryManager8numPoolsEv(ptr noundef nonnull align 8 dereferenceable(176) %this) local_unnamed_addr #0 align 2 {
entry:
  %guard = alloca %"class.folly::SharedMutexImpl<false>::ReadHolder", align 8
  %defaultRoot_ = getelementptr inbounds i8, ptr %this, i64 72
  %0 = load ptr, ptr %defaultRoot_, align 8
  %vtable = load ptr, ptr %0, align 8
  %vfn = getelementptr inbounds i8, ptr %vtable, i64 48
  %1 = load ptr, ptr %vfn, align 8
  %call2 = tail call noundef i64 %1(ptr noundef nonnull align 8 dereferenceable(168) %0)
  %mutex_ = getelementptr inbounds i8, ptr %this, i64 112
  call void @_ZN5folly15SharedMutexImplILb0EvSt6atomicNS_24SharedMutexPolicyDefaultEE10ReadHolderC1ERKS3_(ptr noundef nonnull align 8 dereferenceable(12) %guard, ptr noundef nonnull align 4 dereferenceable(4) %mutex_)
  %_M_element_count.i.i = getelementptr inbounds i8, ptr %this, i64 144
  %2 = load i64, ptr %_M_element_count.i.i, align 8
  %sharedLeafPools_ = getelementptr inbounds i8, ptr %this, i64 88
  %_M_finish.i = getelementptr inbounds i8, ptr %this, i64 96
  %3 = load ptr, ptr %_M_finish.i, align 8
  %4 = load ptr, ptr %sharedLeafPools_, align 8
  %sub.ptr.lhs.cast.i = ptrtoint ptr %3 to i64
  %sub.ptr.rhs.cast.i = ptrtoint ptr %4 to i64
  %sub.ptr.sub.i = sub i64 %sub.ptr.lhs.cast.i, %sub.ptr.rhs.cast.i
  %sub.ptr.div.i = ashr exact i64 %sub.ptr.sub.i, 4
  %sub = add i64 %2, %call2
  %add = sub i64 %sub, %sub.ptr.div.i
  call void @_ZN5folly15SharedMutexImplILb0EvSt6atomicNS_24SharedMutexPolicyDefaultEE10ReadHolderD1Ev(ptr noundef nonnull align 8 dereferenceable(12) %guard) #19
  ret i64 %add
}